; Function Attrs: mustprogress nofree nounwind memory(read, argmem: readwrite, inaccessiblemem: none) uwtable
define dso_local void @_ZN4llvm7AArch6418parseArchExtensionENS_9StringRefE(ptr dead_on_unwind noalias writable writeonly sret(%"class.std::optional.30") align 8 captures(none) %0, ptr readonly captures(none) %1, i64 %2) local_unnamed_addr #2 {
  %4 = icmp eq i64 %2, 0
  br i1 %4, label %.loopexit, label %.preheader

.preheader:                                       ; preds = %3, %_ZSteqIN4llvm9StringRefES1_ENSt9enable_ifIXsr14is_convertibleIDTeqclsr3stdE7declvalIRKT0_EEclsr3stdE7declvalIRKT_EEEbEE5valueEbE4typeES5_RKSt8optionalIS6_E.exit.thread
  %.0.idx13 = phi i64 [ %.0.add, %_ZSteqIN4llvm9StringRefES1_ENSt9enable_ifIXsr14is_convertibleIDTeqclsr3stdE7declvalIRKT0_EEclsr3stdE7declvalIRKT_EEEbEE5valueEbE4typeES5_RKSt8optionalIS6_E.exit.thread ], [ 0, %3 ]
  %.0.ptr14 = getelementptr inbounds nuw i8, ptr @_ZN4llvm7AArch6410ExtensionsE, i64 %.0.idx13
  %.sroa.2.0..sroa_idx = getelementptr inbounds nuw i8, ptr %.0.ptr14, i64 8
  %.sroa.2.0.copyload = load i64, ptr %.sroa.2.0..sroa_idx, align 8
  %.not.i = icmp eq i64 %2, %.sroa.2.0.copyload
  br i1 %.not.i, label %_ZN4llvmeqENS_9StringRefES0_.exit, label %_ZN4llvmeqENS_9StringRefES0_.exit.thread

_ZN4llvmeqENS_9StringRefES0_.exit:                ; preds = %.preheader
  %.sroa.0.0.copyload = load ptr, ptr %.0.ptr14, align 16
  %bcmp.i = tail call i32 @bcmp(ptr %1, ptr %.sroa.0.0.copyload, i64 %2)
  %5 = icmp eq i32 %bcmp.i, 0
  br i1 %5, label %12, label %_ZN4llvmeqENS_9StringRefES0_.exit.thread

_ZN4llvmeqENS_9StringRefES0_.exit.thread:         ; preds = %.preheader, %_ZN4llvmeqENS_9StringRefES0_.exit
  %6 = getelementptr inbounds nuw i8, ptr %.0.ptr14, i64 32
  %7 = load i8, ptr %6, align 16
  %8 = trunc i8 %7 to i1
  br i1 %8, label %9, label %_ZSteqIN4llvm9StringRefES1_ENSt9enable_ifIXsr14is_convertibleIDTeqclsr3stdE7declvalIRKT0_EEclsr3stdE7declvalIRKT_EEEbEE5valueEbE4typeES5_RKSt8optionalIS6_E.exit.thread

9:                                                ; preds = %_ZN4llvmeqENS_9StringRefES0_.exit.thread
  %.sroa.2.0..sroa_idx.i = getelementptr inbounds nuw i8, ptr %.0.ptr14, i64 24
  %.sroa.2.0.copyload.i = load i64, ptr %.sroa.2.0..sroa_idx.i, align 8
  %.not.i.i = icmp eq i64 %2, %.sroa.2.0.copyload.i
  br i1 %.not.i.i, label %_ZSteqIN4llvm9StringRefES1_ENSt9enable_ifIXsr14is_convertibleIDTeqclsr3stdE7declvalIRKT0_EEclsr3stdE7declvalIRKT_EEEbEE5valueEbE4typeES5_RKSt8optionalIS6_E.exit, label %_ZSteqIN4llvm9StringRefES1_ENSt9enable_ifIXsr14is_convertibleIDTeqclsr3stdE7declvalIRKT0_EEclsr3stdE7declvalIRKT_EEEbEE5valueEbE4typeES5_RKSt8optionalIS6_E.exit.thread

_ZSteqIN4llvm9StringRefES1_ENSt9enable_ifIXsr14is_convertibleIDTeqclsr3stdE7declvalIRKT0_EEclsr3stdE7declvalIRKT_EEEbEE5valueEbE4typeES5_RKSt8optionalIS6_E.exit: ; preds = %9
  %10 = getelementptr inbounds nuw i8, ptr %.0.ptr14, i64 16
  %.sroa.0.0.copyload.i = load ptr, ptr %10, align 16
  %bcmp.i.i = tail call i32 @bcmp(ptr %1, ptr %.sroa.0.0.copyload.i, i64 %2)
  %11 = icmp eq i32 %bcmp.i.i, 0
  br i1 %11, label %12, label %_ZSteqIN4llvm9StringRefES1_ENSt9enable_ifIXsr14is_convertibleIDTeqclsr3stdE7declvalIRKT0_EEclsr3stdE7declvalIRKT_EEEbEE5valueEbE4typeES5_RKSt8optionalIS6_E.exit.thread

12:                                               ; preds = %_ZSteqIN4llvm9StringRefES1_ENSt9enable_ifIXsr14is_convertibleIDTeqclsr3stdE7declvalIRKT0_EEclsr3stdE7declvalIRKT_EEEbEE5valueEbE4typeES5_RKSt8optionalIS6_E.exit, %_ZN4llvmeqENS_9StringRefES0_.exit
  tail call void @llvm.memcpy.p0.p0.i64(ptr noundef nonnull align 8 dereferenceable(120) %0, ptr noundef nonnull align 16 dereferenceable(112) %.0.ptr14, i64 112, i1 false)
  br label %.loopexit

_ZSteqIN4llvm9StringRefES1_ENSt9enable_ifIXsr14is_convertibleIDTeqclsr3stdE7declvalIRKT0_EEclsr3stdE7declvalIRKT_EEEbEE5valueEbE4typeES5_RKSt8optionalIS6_E.exit.thread: ; preds = %9, %_ZN4llvmeqENS_9StringRefES0_.exit.thread, %_ZSteqIN4llvm9StringRefES1_ENSt9enable_ifIXsr14is_convertibleIDTeqclsr3stdE7declvalIRKT0_EEclsr3stdE7declvalIRKT_EEEbEE5valueEbE4typeES5_RKSt8optionalIS6_E.exit
  %.0.add = add nuw nsw i64 %.0.idx13, 112
  %.not = icmp eq i64 %.0.add, 12544
  br i1 %.not, label %.loopexit, label %.preheader

.loopexit:                                        ; preds = %_ZSteqIN4llvm9StringRefES1_ENSt9enable_ifIXsr14is_convertibleIDTeqclsr3stdE7declvalIRKT0_EEclsr3stdE7declvalIRKT_EEEbEE5valueEbE4typeES5_RKSt8optionalIS6_E.exit.thread, %3, %12
  %.sink = phi i8 [ 1, %12 ], [ 0, %3 ], [ 0, %_ZSteqIN4llvm9StringRefES1_ENSt9enable_ifIXsr14is_convertibleIDTeqclsr3stdE7declvalIRKT0_EEclsr3stdE7declvalIRKT_EEEbEE5valueEbE4typeES5_RKSt8optionalIS6_E.exit.thread ]
  %13 = getelementptr inbounds nuw i8, ptr %0, i64 112
  store i8 %.sink, ptr %13, align 8
  ret void
}